; Function Attrs: mustprogress uwtable
define hidden noundef zeroext i1 @_ZN7datalog11udoc_plugin20can_handle_signatureERKNS_18relation_signatureE(ptr noundef nonnull align 8 dereferenceable(129) %0, ptr noundef nonnull readonly align 8 captures(none) dereferenceable(8) %1) unnamed_addr #3 align 2 {
  %3 = getelementptr inbounds nuw i8, ptr %0, i64 72
  %4 = getelementptr inbounds nuw i8, ptr %0, i64 48
  br label %5

5:                                                ; preds = %_ZNK7datalog11udoc_plugin14is_finite_sortEP4sort.exit.thread9, %2
  %indvars.iv = phi i64 [ %indvars.iv.next, %_ZNK7datalog11udoc_plugin14is_finite_sortEP4sort.exit.thread9 ], [ 0, %2 ]
  %6 = load ptr, ptr %1, align 8, !tbaa !10
  %7 = icmp eq ptr %6, null
  br i1 %7, label %_ZNK6vectorIP4sortLb0EjE4sizeEv.exit, label %8

8:                                                ; preds = %5
  %9 = getelementptr inbounds i8, ptr %6, i64 -4
  %10 = load i32, ptr %9, align 4, !tbaa !14
  %11 = zext i32 %10 to i64
  br label %_ZNK6vectorIP4sortLb0EjE4sizeEv.exit

_ZNK6vectorIP4sortLb0EjE4sizeEv.exit:             ; preds = %5, %8
  %.0.i = phi i64 [ %11, %8 ], [ 0, %5 ]
  %.not.not.not.not.not = icmp samesign uge i64 %indvars.iv, %.0.i
  br i1 %.not.not.not.not.not, label %_ZNK7datalog11udoc_plugin14is_finite_sortEP4sort.exit.thread, label %12

12:                                               ; preds = %_ZNK6vectorIP4sortLb0EjE4sizeEv.exit
  %13 = getelementptr inbounds nuw ptr, ptr %6, i64 %indvars.iv
  %14 = load ptr, ptr %13, align 8, !tbaa !26
  %15 = tail call noundef zeroext i1 @_ZNK14bv_recognizers10is_bv_sortEPK4sort(ptr noundef nonnull align 4 dereferenceable(4) %4, ptr noundef %14)
  br i1 %15, label %_ZNK7datalog11udoc_plugin14is_finite_sortEP4sort.exit.thread9, label %16

16:                                               ; preds = %12
  %17 = tail call noundef i32 @_ZNK7datalog12dl_decl_util13get_family_idEv(ptr noundef nonnull align 8 dereferenceable(28) %3)
  %18 = getelementptr inbounds nuw i8, ptr %14, i64 24
  %19 = load ptr, ptr %18, align 8, !tbaa !54
  %20 = icmp eq ptr %19, null
  br i1 %20, label %_ZNK7datalog11udoc_plugin14is_finite_sortEP4sort.exit.thread, label %_ZNK4decl13get_family_idEv.exit.thread.i.i.i.i

_ZNK4decl13get_family_idEv.exit.thread.i.i.i.i:   ; preds = %16
  %21 = load i32, ptr %19, align 8, !tbaa !430
  %22 = icmp eq i32 %21, %17
  br i1 %22, label %_ZNK7datalog11udoc_plugin14is_finite_sortEP4sort.exit, label %_ZNK7datalog11udoc_plugin14is_finite_sortEP4sort.exit.thread

_ZNK7datalog11udoc_plugin14is_finite_sortEP4sort.exit: ; preds = %_ZNK4decl13get_family_idEv.exit.thread.i.i.i.i
  %23 = getelementptr inbounds nuw i8, ptr %19, i64 4
  %24 = load i32, ptr %23, align 4, !tbaa !432
  %25 = icmp eq i32 %24, 1
  br i1 %25, label %_ZNK7datalog11udoc_plugin14is_finite_sortEP4sort.exit.thread9, label %_ZNK7datalog11udoc_plugin14is_finite_sortEP4sort.exit.thread

_ZNK7datalog11udoc_plugin14is_finite_sortEP4sort.exit.thread9: ; preds = %12, %_ZNK7datalog11udoc_plugin14is_finite_sortEP4sort.exit
  %indvars.iv.next = add nuw nsw i64 %indvars.iv, 1
  br label %5, !llvm.loop !433

_ZNK7datalog11udoc_plugin14is_finite_sortEP4sort.exit.thread: ; preds = %16, %_ZNK4decl13get_family_idEv.exit.thread.i.i.i.i, %_ZNK7datalog11udoc_plugin14is_finite_sortEP4sort.exit, %_ZNK6vectorIP4sortLb0EjE4sizeEv.exit
  ret i1 %.not.not.not.not.not
}